; Function Attrs: mustprogress uwtable
define hidden noundef zeroext i1 @_ZN3smt12theory_array19instantiate_axiom2bEPNS_5enodeES2_(ptr noundef nonnull align 8 dereferenceable(444) %0, ptr noundef %1, ptr noundef %2) local_unnamed_addr #4 align 2 {
  %4 = tail call noundef zeroext i1 @_ZN3smt17theory_array_base19assert_store_axiom2EPNS_5enodeES2_(ptr noundef nonnull align 8 dereferenceable(249) %0, ptr noundef %2, ptr noundef %1)
  br i1 %4, label %5, label %9

5:                                                ; preds = %3
  %6 = getelementptr inbounds nuw i8, ptr %0, i64 280
  %7 = load i32, ptr %6, align 8, !tbaa !594
  %8 = add i32 %7, 1
  store i32 %8, ptr %6, align 8, !tbaa !594
  br label %9

9:                                                ; preds = %3, %5
  ret i1 %4
}